; Function Attrs: uwtable
define hidden noundef zeroext i1 @_ZThn48_N6recfun6solver5visitEP4expr(ptr noundef %this, ptr noundef %e) unnamed_addr #12 align 2 {
entry:
  %0 = getelementptr inbounds i8, ptr %this, i64 -48
  %vtable.i = load ptr, ptr %0, align 8
  %vfn.i = getelementptr inbounds i8, ptr %vtable.i, i64 528
  %1 = load ptr, ptr %vfn.i, align 8
  %call.i = tail call noundef zeroext i1 %1(ptr noundef nonnull align 8 dereferenceable(268) %0, ptr noundef %e)
  br i1 %call.i, label %_ZN6recfun6solver5visitEP4expr.exit, label %if.end.i

if.end.i:                                         ; preds = %entry
  %m_kind.i.i.i = getelementptr inbounds i8, ptr %e, i64 4
  %bf.load.i.i.i = load i32, ptr %m_kind.i.i.i, align 4
  %bf.clear.i.i.i = and i32 %bf.load.i.i.i, 65535
  %cmp.i.i = icmp eq i32 %bf.clear.i.i.i, 0
  br i1 %cmp.i.i, label %lor.lhs.false.i, label %if.then6.i

lor.lhs.false.i:                                  ; preds = %if.end.i
  %m_decl.i.i.i = getelementptr inbounds i8, ptr %e, i64 16
  %2 = load ptr, ptr %m_decl.i.i.i, align 8
  %m_info.i.i.i = getelementptr inbounds i8, ptr %2, i64 24
  %3 = load ptr, ptr %m_info.i.i.i, align 8
  %cmp.i.i.i = icmp eq ptr %3, null
  br i1 %cmp.i.i.i, label %_ZNK3app13get_family_idEv.exit.i, label %cond.false.i.i.i

cond.false.i.i.i:                                 ; preds = %lor.lhs.false.i
  %4 = load i32, ptr %3, align 8
  br label %_ZNK3app13get_family_idEv.exit.i

_ZNK3app13get_family_idEv.exit.i:                 ; preds = %cond.false.i.i.i, %lor.lhs.false.i
  %cond.i.i.i = phi i32 [ %4, %cond.false.i.i.i ], [ -1, %lor.lhs.false.i ]
  %m_id.i.i = getelementptr inbounds i8, ptr %this, i64 -36
  %5 = load i32, ptr %m_id.i.i, align 4
  %cmp.not.i = icmp eq i32 %cond.i.i.i, %5
  br i1 %cmp.not.i, label %if.end9.i, label %if.then6.i

if.then6.i:                                       ; preds = %_ZNK3app13get_family_idEv.exit.i, %if.end.i
  %ctx.i = getelementptr inbounds i8, ptr %this, i64 32
  %6 = load ptr, ptr %ctx.i, align 8
  %vtable7.i = load ptr, ptr %6, align 8
  %vfn8.i = getelementptr inbounds i8, ptr %vtable7.i, i64 440
  %7 = load ptr, ptr %vfn8.i, align 8
  tail call void %7(ptr noundef nonnull align 8 dereferenceable(9136) %6, ptr noundef nonnull %e)
  br label %_ZN6recfun6solver5visitEP4expr.exit

if.end9.i:                                        ; preds = %_ZNK3app13get_family_idEv.exit.i
  %m_stack.i = getelementptr inbounds i8, ptr %this, i64 16
  %8 = load ptr, ptr %m_stack.i, align 8
  %cmp.i5.i = icmp eq ptr %8, null
  br i1 %cmp.i5.i, label %if.then.i.i, label %lor.lhs.false.i.i

lor.lhs.false.i.i:                                ; preds = %if.end9.i
  %arrayidx.i.i = getelementptr inbounds i8, ptr %8, i64 -4
  %9 = load i32, ptr %arrayidx.i.i, align 4
  %arrayidx4.i.i = getelementptr inbounds i8, ptr %8, i64 -8
  %10 = load i32, ptr %arrayidx4.i.i, align 4
  %cmp5.i.i = icmp eq i32 %9, %10
  br i1 %cmp5.i.i, label %if.then.i.i, label %_ZN6vectorIN3sat6eframeELb0EjE9push_backEOS1_.exit.i

if.then.i.i:                                      ; preds = %lor.lhs.false.i.i, %if.end9.i
  tail call void @_ZN6vectorIN3sat6eframeELb0EjE13expand_vectorEv(ptr noundef nonnull align 8 dereferenceable(8) %m_stack.i)
  %.pre.i.i = load ptr, ptr %m_stack.i, align 8
  %arrayidx8.phi.trans.insert.i.i = getelementptr inbounds i8, ptr %.pre.i.i, i64 -4
  %.pre1.i.i = load i32, ptr %arrayidx8.phi.trans.insert.i.i, align 4
  br label %_ZN6vectorIN3sat6eframeELb0EjE9push_backEOS1_.exit.i

_ZN6vectorIN3sat6eframeELb0EjE9push_backEOS1_.exit.i: ; preds = %if.then.i.i, %lor.lhs.false.i.i
  %11 = phi i32 [ %.pre1.i.i, %if.then.i.i ], [ %9, %lor.lhs.false.i.i ]
  %12 = phi ptr [ %.pre.i.i, %if.then.i.i ], [ %8, %lor.lhs.false.i.i ]
  %idx.ext.i.i = zext i32 %11 to i64
  %add.ptr.i.i = getelementptr inbounds %"struct.sat::eframe", ptr %12, i64 %idx.ext.i.i
  store ptr %e, ptr %add.ptr.i.i, align 8
  %ref.tmp.sroa.2.0.add.ptr.i.sroa_idx.i = getelementptr inbounds i8, ptr %add.ptr.i.i, i64 8
  store i32 0, ptr %ref.tmp.sroa.2.0.add.ptr.i.sroa_idx.i, align 8
  %13 = load ptr, ptr %m_stack.i, align 8
  %arrayidx10.i.i = getelementptr inbounds i8, ptr %13, i64 -4
  %14 = load i32, ptr %arrayidx10.i.i, align 4
  %inc.i.i = add i32 %14, 1
  store i32 %inc.i.i, ptr %arrayidx10.i.i, align 4
  br label %_ZN6recfun6solver5visitEP4expr.exit

_ZN6recfun6solver5visitEP4expr.exit:              ; preds = %entry, %if.then6.i, %_ZN6vectorIN3sat6eframeELb0EjE9push_backEOS1_.exit.i
  %retval.0.i = phi i1 [ true, %if.then6.i ], [ false, %_ZN6vectorIN3sat6eframeELb0EjE9push_backEOS1_.exit.i ], [ true, %entry ]
  ret i1 %retval.0.i
}